ccopy_reg
_reconstructor
p1
(csklearn.mixture.gmm
GMM
p2
c__builtin__
object
p3
NtRp4
(dp5
S'min_covar'
p6
F0.001
sS'covariance_type'
p7
S'full'
p8
sS'converged_'
p9
I01
sS'n_iter'
p10
I100
sS'covars_'
p11
cnumpy.core.multiarray
_reconstruct
p12
(cnumpy
ndarray
p13
(I0
tS'b'
tRp14
(I1
(I2
I1
I1
tcnumpy
dtype
p15
(S'f8'
I0
I1
tRp16
(I3
S'<'
NNNI-1
I-1
I0
tbI00
S'\xdf\x04\xa2>7\xe7\nAfaJ\x82\xf09\xf2@'
tbsS'weights_'
p17
g12
(g13
(I0
tS'b'
tRp18
(I1
(I2
tg16
I00
S'*\xeb\xd2\xaf\xcd<\xdc?o\x8a\x16(\x99\xe1\xe1?'
tbsS'random_state'
p19
NsS'thresh'
p20
NsS'n_components'
p21
I2
sS'tol'
p22
F0.001
sS'params'
p23
S'wmc'
p24
sS'means_'
p25
g12
(g13
(I0
tS'b'
tRp26
(I1
(I2
I1
tg16
I00
S"\r\xf7'N\x14\x0e\x96@R\x0ck\xa9\xb9p\x9d@"
tbsS'init_params'
p27
g24
sS'n_init'
p28
I1
sb.