(dp1
S'fair_and_square'
p2
(dp3
S'AH'
p4
(igoofy.machine_learning.prepare_data
GMM_structure
p5
(dp6
S'norm_F1'
p7
(lp8
F545
aF478
aF819
aF823
aF756
aF823
aF544
aF756
aF492
aF766
aF708
aF544
aF544
aF552
aF756
aF823
aF695
aF544
aF648
aF544
aF544
aF756
aF818
aF821
aF544
aF738
aF761
aF604
aF747
aF748
aF566
aF602
aF607
asS'stress'
p9
(lp10
S'0'
asS'norm_F2'
p11
(lp12
F1646
aF1805
aF2075
aF1392
aF1997
aF2180
aF1403
aF1997
aF1449
aF1316
aF1681
aF1997
aF1997
aF1997
aF1997
aF2185
aF1666
aF1403
aF1400
aF1403
aF1997
aF1997
aF2175
aF2167
aF1997
aF1778
aF2183
aF1748
aF1985
aF1932
aF1423
aF1595
aF1727
asS'words'
p13
(lp14
S'AND'
p15
asbsS'AE'
p16
(igoofy.machine_learning.prepare_data
GMM_structure
p17
(dp18
g7
(lp19
F811
aF823
aF822
aF703
aF507
aF794
aF751
aF756
aF477
aF756
aF686
aF544
aF648
aF638
aF823
aF563
aF602
aF716
aF559
aF821
asg9
(lp20
S'1'
asg11
(lp21
F1958
aF2175
aF1966
aF1215
aF1403
aF1426
aF1573
aF1997
aF2171
aF1997
aF1271
aF1997
aF1862
aF1686
aF2185
aF1814
aF1758
aF1753
aF1356
aF2154
asg13
(lp22
S'AND'
p23
asbsS'EH'
p24
(igoofy.machine_learning.prepare_data
GMM_structure
p25
(dp26
g7
(lp27
F583
aF822
aF715
aF756
aF534
aF597
aF572
aF555
aF513
aF626
aF559
aF568
aF583
aF545
aF544
aF481
aF766
aF566
aF561
aF756
aF544
aF637
aF806
aF668
aF790
aF481
aF703
aF480
aF763
aF756
aF756
aF823
aF576
aF544
aF559
aF568
aF483
aF772
aF756
aF501
aF801
aF756
aF495
aF661
aF756
aF544
aF528
aF604
aF478
aF721
aF544
aF729
aF744
aF544
aF485
aF779
aF756
aF543
aF586
aF756
aF735
aF477
aF479
aF709
aF818
aF529
aF801
aF501
aF806
aF506
aF557
aF570
aF726
aF477
aF823
aF564
aF724
aF477
aF818
aF530
aF756
aF478
aF823
aF567
aF823
aF561
aF541
aF588
aF818
aF530
aF526
aF817
asg9
(lp28
S'1'
asg11
(lp29
F2145
aF1310
aF2058
aF1238
aF1778
aF1246
aF2178
aF1530
aF1926
aF1215
aF1547
aF1378
aF1918
aF1216
aF1403
aF1959
aF1926
aF1519
aF1401
aF1997
aF1403
aF2180
aF1517
aF2185
aF1466
aF2148
aF1636
aF2129
aF1290
aF1403
aF1403
aF0
aF1403
aF1403
aF1472
aF1443
aF2136
aF1298
aF1997
aF2180
aF1520
aF1997
aF2184
aF1491
aF1403
aF1403
aF1549
aF1376
aF2169
aF1358
aF1403
aF1366
aF1563
aF1403
aF1719
aF2110
aF1403
aF1579
aF1354
aF1403
aF2076
aF1247
aF1420
aF1497
aF2094
aF1258
aF2015
aF1223
aF2127
aF1287
aF1459
aF1456
aF1897
aF1218
aF2051
aF1235
aF1953
aF1215
aF2088
aF1254
aF2091
aF1256
aF2168
aF1577
aF2183
aF1494
aF1622
aF1325
aF2163
aF1343
aF2106
aF1267
asg13
(lp30
S'FAIR'
p31
asbssS'a_piece_of_cake'
p32
(dp33
S'IY'
p34
(igoofy.machine_learning.prepare_data
GMM_structure
p35
(dp36
g7
(lp37
F871
aF565
aF531
aF862
aF859
aF862
aF852
aF531
aF708
aF728
aF864
aF480
aF757
aF533
aF528
aF519
aF508
aF508
aF646
aF836
aF870
aF816
aF871
aF873
aF794
aF500
aF483
aF793
aF819
aF804
aF544
aF718
aF744
aF856
aF790
aF796
aF631
aF785
aF875
aF823
aF873
aF863
aF796
aF804
aF844
aF496
aF827
aF482
aF446
aF815
aF512
aF478
aF476
aF532
asg9
(lp38
S'1'
asg11
(lp39
F0
aF1582
aF1497
aF2322
aF2289
aF1959
aF2074
aF2039
aF2316
aF2133
aF2300
aF1410
aF2168
aF1788
aF2178
aF1720
aF1940
aF1940
aF1955
aF2231
aF2249
aF2169
aF2197
aF2301
aF2226
aF2158
aF2164
aF2071
aF2136
aF2200
aF1974
aF2052
aF1936
aF2160
aF2102
aF2182
aF2040
aF2073
aF2156
aF2184
aF2313
aF2311
aF2189
aF2172
aF2299
aF1432
aF2065
aF1398
aF2209
aF2007
aF1471
aF1255
aF1257
aF1569
asg13
(lp40
S'PIECE'
p41
asbsS'AH'
p42
(igoofy.machine_learning.prepare_data
GMM_structure
p43
(dp44
g7
(lp45
F615
aF569
aF640
aF530
aF700
aF529
aF513
aF589
aF504
aF636
aF511
aF633
aF523
aF676
aF870
aF593
aF828
aF484
aF799
aF455
aF554
aF642
aF772
aF780
aF541
aF503
aF598
aF869
aF591
aF804
aF523
aF670
aF852
aF670
aF852
aF802
aF680
aF609
aF616
aF571
aF523
aF608
aF582
aF579
aF596
aF614
aF737
aF850
aF668
aF804
aF745
aF480
aF570
aF515
aF533
aF556
aF491
aF584
aF537
aF516
aF426
aF708
aF528
aF550
aF444
aF644
aF515
aF527
aF568
aF534
aF486
aF560
aF568
aF575
aF575
aF589
aF591
aF647
aF532
aF569
aF755
aF549
aF497
aF691
aF515
aF672
aF847
aF598
aF700
aF693
aF834
aF803
aF651
aF547
aF501
aF548
aF701
aF591
aF703
aF594
aF702
aF640
aF563
asg9
(lp46
S'0'
asg11
(lp47
F2170
aF1361
aF1826
aF1197
aF2155
aF1221
aF1557
aF1403
aF1623
aF1595
aF2145
aF1438
aF1126
aF1941
aF1759
aF1094
aF1510
aF1379
aF1593
aF1165
aF1405
aF1682
aF1843
aF2228
aF1357
aF1574
aF1243
aF1584
aF1186
aF1822
aF1127
aF1115
aF2060
aF1115
aF2060
aF1929
aF1250
aF1516
aF1422
aF1326
aF1358
aF1173
aF1666
aF1322
aF1588
aF1247
aF1814
aF1205
aF1525
aF1167
aF1616
aF1103
aF1743
aF1136
aF1683
aF1317
aF1391
aF1216
aF1163
aF1569
aF1081
aF1985
aF1146
aF1690
aF1110
aF1821
aF1177
aF1615
aF1206
aF1496
aF1103
aF1744
aF1531
aF1202
aF1483
aF1361
aF1571
aF1412
aF1437
aF1275
aF1900
aF1318
aF1375
aF1359
aF1468
aF1535
aF2327
aF1342
aF2062
aF1306
aF2190
aF1207
aF1806
aF1495
aF1208
aF1231
aF2129
aF1428
aF2057
aF1425
aF2057
aF1663
aF1286
asg13
(lp48
S'A'
asbsS'EY'
p49
(igoofy.machine_learning.prepare_data
GMM_structure
p50
(dp51
g7
(lp52
F545
aF864
aF840
aF637
aF601
aF595
aF549
aF606
aF580
aF618
aF540
aF568
aF799
aF819
aF612
aF753
aF570
aF570
aF502
aF476
aF543
aF611
aF539
aF552
aF455
aF582
aF568
aF757
aF734
aF749
aF822
aF829
aF722
aF666
aF723
aF763
aF867
aF770
aF581
aF552
aF547
aF559
aF480
aF750
aF550
aF585
aF474
aF591
aF700
aF737
aF839
aF828
aF828
aF865
asg9
(lp53
S'1'
asg11
(lp54
F1569
aF2196
aF1927
aF1518
aF1293
aF1258
aF1659
aF1908
aF1595
aF1909
aF1413
aF1318
aF0
aF2069
aF1852
aF2131
aF1685
aF1685
aF1215
aF1803
aF1803
aF1573
aF1763
aF1589
aF1513
aF1911
aF1852
aF1883
aF1845
aF1892
aF1909
aF2017
aF1797
aF1803
aF1767
aF1826
aF2058
aF1880
aF1911
aF1433
aF1555
aF1640
aF1436
aF1935
aF1674
aF1507
aF1331
aF1906
aF1578
aF2089
aF1970
aF2060
aF2060
aF2282
asg13
(lp55
S'CAKE'
p56
asbssS'blow_a_fuse'
p57
(dp58
S'OW'
p59
(igoofy.machine_learning.prepare_data
GMM_structure
p60
(dp61
g7
(lp62
F564
aF745
aF733
aF773
aF761
aF766
aF679
aF646
aF802
aF775
aF548
aF757
aF652
aF485
aF509
aF617
aF756
aF756
aF817
aF815
aF537
aF635
aF544
aF799
aF683
aF683
aF769
aF749
aF505
aF568
aF775
aF595
aF756
aF538
aF544
aF544
aF544
aF544
aF544
aF672
aF672
aF771
aF589
aF755
asg9
(lp63
S'1'
asg11
(lp64
F1315
aF2141
aF2172
aF2126
aF2095
aF2107
aF2136
aF1997
aF2143
aF1281
aF1777
aF2161
aF1325
aF2053
aF2059
aF2075
aF1403
aF1997
aF2109
aF2143
aF1671
aF2039
aF1997
aF2132
aF2131
aF2167
aF1978
aF1979
aF1856
aF1552
aF2174
aF1997
aF1997
aF1695
aF1997
aF1997
aF1403
aF1997
aF1997
aF1970
aF1791
aF2183
aF1749
aF2185
asg13
(lp65
S'BLOW'
p66
asbsS'AH'
p67
(igoofy.machine_learning.prepare_data
GMM_structure
p68
(dp69
g7
(lp70
F563
aF728
aF740
aF694
aF710
aF704
aF784
aF802
aF645
aF692
aF580
aF714
aF799
aF688
aF633
aF814
aF544
aF544
aF606
aF612
aF593
aF756
aF756
aF807
aF756
aF653
aF756
aF781
aF544
aF756
aF781
aF699
aF723
aF756
aF641
aF559
aF535
aF544
aF591
aF756
aF756
aF756
aF756
aF756
aF788
aF788
aF697
aF717
asg9
(lp71
S'0'
asg11
(lp72
F1638
aF1655
aF1560
aF1687
aF1745
aF1724
aF1666
aF1403
aF1308
aF2121
aF1247
aF1339
aF2154
aF1812
aF1804
aF1778
aF1997
aF1403
aF1269
aF1307
aF1295
aF1403
aF1403
aF1831
aF1403
aF1293
aF1403
aF1292
aF1403
aF1403
aF1353
aF1217
aF1217
aF1403
aF2020
aF1374
aF1403
aF1403
aF1282
aF1403
aF1403
aF1997
aF1403
aF1403
aF1914
aF2067
aF1495
aF1463
asg13
(lp73
S'A'
asbsS'UW'
p74
(igoofy.machine_learning.prepare_data
GMM_structure
p75
(dp76
g7
(lp77
F823
aF477
aF477
aF483
aF479
aF480
aF488
aF502
aF503
aF484
aF822
aF479
aF499
aF777
aF808
aF519
aF527
aF523
aF820
aF544
aF544
aF508
aF499
aF544
aF486
aF756
aF544
aF486
aF482
aF477
aF544
aF804
aF823
aF484
aF820
aF820
aF490
aF490
aF482
aF540
aF478
asg9
(lp78
S'1'
asg11
(lp79
F2148
aF1304
aF1368
aF1286
aF1259
aF1268
aF1298
aF0
aF1648
aF1697
aF2076
aF1600
aF1621
aF1235
aF1238
aF1246
aF1722
aF1650
aF2134
aF1997
aF1997
aF1230
aF1676
aF1997
aF1676
aF1997
aF1997
aF1580
aF1905
aF1904
aF1997
aF1224
aF2174
aF1376
aF0
aF2122
aF1216
aF1242
aF1422
aF1258
aF1452
asg13
(lp80
S'FUSE'
p81
asbsS'EY'
p82
(igoofy.machine_learning.prepare_data
GMM_structure
p83
(dp84
g7
(lp85
F691
aF821
asg9
(lp86
S'1'
asg11
(lp87
F1550
aF2094
asg13
(lp88
S'A'
asbssS'get_cold_feet'
p89
(dp90
S'OW'
p91
(igoofy.machine_learning.prepare_data
GMM_structure
p92
(dp93
g7
(lp94
F524
aF557
aF612
aF706
aF716
aF690
aF757
aF738
aF711
aF770
aF579
aF716
aF724
aF759
aF713
aF774
aF803
aF815
aF756
aF578
aF823
aF586
aF573
aF821
aF578
aF802
aF763
aF549
aF546
aF551
aF538
aF543
aF507
aF541
aF552
aF547
aF554
aF540
aF479
aF758
aF575
aF582
aF522
aF599
aF564
aF579
aF573
aF477
aF477
aF702
aF551
aF565
aF561
aF566
asg9
(lp95
S'1'
asg11
(lp96
F1710
aF1864
aF1957
aF2163
aF2160
aF2097
aF2118
aF2134
aF2030
aF2083
aF1862
aF2053
aF2040
aF2153
aF2137
aF2156
aF1223
aF1256
aF1997
aF1220
aF1221
aF1614
aF1234
aF1220
aF1235
aF1226
aF1218
aF1493
aF1449
aF1355
aF1528
aF1356
aF1376
aF1292
aF1267
aF1332
aF1690
aF1835
aF1222
aF1407
aF1374
aF1451
aF1269
aF1725
aF1490
aF1581
aF1322
aF1230
aF1261
aF1987
aF1655
aF1441
aF1540
aF1886
asg13
(lp97
S'COLD'
p98
asbsS'IY'
p99
(igoofy.machine_learning.prepare_data
GMM_structure
p100
(dp101
g7
(lp102
F816
aF823
aF522
aF480
aF478
aF484
aF478
aF477
aF479
aF482
aF822
aF478
aF477
aF479
aF479
aF483
aF503
aF521
aF544
aF549
aF565
aF821
aF554
aF586
aF550
aF502
aF480
aF822
aF822
aF823
aF592
aF821
aF806
aF821
aF823
aF822
aF823
aF821
aF757
aF713
aF823
aF822
aF815
aF819
aF823
aF822
aF823
aF747
aF735
aF481
aF823
aF823
aF823
aF823
asg9
(lp103
S'1'
asg11
(lp104
F2115
aF2013
aF1927
aF1594
aF1602
aF1743
aF1704
aF1670
aF1843
aF1766
aF2015
aF1812
aF1829
aF1623
aF1665
aF1616
aF2012
aF2091
aF1403
aF1882
aF2004
aF2156
aF1818
aF1998
aF1814
aF2024
aF1985
aF2183
aF2185
aF2168
aF2179
aF2168
aF2175
aF2131
aF2106
aF2158
aF2125
aF2036
aF1868
aF2181
aF2174
aF2185
aF2108
aF2107
aF2184
aF2167
aF2152
aF1833
aF1742
aF1895
aF2141
aF2185
aF2176
aF1995
asg13
(lp105
S'FEET'
p106
asbsS'EH'
p107
(igoofy.machine_learning.prepare_data
GMM_structure
p108
(dp109
g7
(lp110
F610
aF570
aF815
aF764
aF755
aF776
aF715
aF735
aF759
aF698
aF549
aF756
aF749
aF712
aF758
aF693
aF614
aF822
aF708
aF579
aF582
aF577
aF820
aF586
aF636
aF589
aF576
aF581
aF573
aF589
aF479
aF552
aF563
aF554
aF767
aF577
aF562
aF566
aF561
asg9
(lp111
S'1'
asg11
(lp112
F1275
aF1223
aF1215
aF1343
aF1338
aF1260
aF1278
aF1296
aF1227
aF1251
aF1223
aF1235
aF1231
aF1324
aF1299
aF1329
aF1754
aF1998
aF1897
aF1423
aF1466
aF1577
aF1393
aF1575
aF1549
aF1676
aF1727
aF1610
aF1285
aF1229
aF1511
aF1552
aF1426
aF1626
aF1218
aF1304
aF1475
aF1383
aF1219
asg13
(lp113
S'GET'
p114
asbsS'IH'
p115
(igoofy.machine_learning.prepare_data
GMM_structure
p116
(dp117
g7
(lp118
F645
aF561
aF543
aF823
aF543
aF822
aF645
aF715
aF546
aF613
aF532
aF549
aF726
aF738
asg9
(lp119
S'1'
asg11
(lp120
F1865
aF1875
aF1330
aF2048
aF1882
aF2051
aF1850
aF2010
aF1464
aF1723
aF1268
aF1352
aF2038
aF2097
asg13
(lp121
S'GET'
p122
asbssS'pulling_your_legs'
p123
(dp124
S'IH'
p125
(igoofy.machine_learning.prepare_data
GMM_structure
p126
(dp127
g7
(lp128
F473
aF581
aF556
aF502
aF874
aF477
aF872
aF836
aF816
aF710
aF786
aF615
aF530
aF861
aF829
aF841
aF821
aF522
aF571
aF586
aF643
aF552
aF569
aF627
aF708
aF552
aF564
aF585
aF868
aF690
aF854
aF872
aF491
asg9
(lp129
S'0'
asg11
(lp130
F1618
aF1635
aF1644
aF1605
aF2103
aF1585
aF2325
aF1956
aF2104
aF2090
aF2162
aF1584
aF1813
aF1938
aF2015
aF2023
aF1916
aF1513
aF1628
aF1774
aF1754
aF1499
aF1302
aF1807
aF1785
aF1409
aF1387
aF1473
aF2005
aF1699
aF2198
aF2155
aF1670
asg13
(lp131
S'PULLING'
p132
asbsS'UH'
p133
(igoofy.machine_learning.prepare_data
GMM_structure
p134
(dp135
g7
(lp136
F746
aF582
aF728
aF477
aF753
aF491
aF564
aF841
aF544
aF565
aF564
aF670
aF839
aF590
aF542
aF547
aF512
aF595
aF470
aF464
aF817
aF450
aF740
aF533
aF869
aF707
aF527
aF544
aF512
aF588
aF544
aF594
aF477
aF756
aF569
aF499
aF544
aF544
aF587
aF477
aF544
aF518
aF770
aF619
aF540
aF607
aF537
aF663
aF464
aF493
aF758
aF589
aF875
aF597
aF513
aF585
aF480
aF549
aF868
aF517
aF855
aF534
aF611
aF529
aF618
aF492
aF840
aF573
aF509
aF540
aF593
aF780
aF553
asg9
(lp137
S'1'
asg11
(lp138
F2264
aF1249
aF2312
aF1419
aF2304
aF1351
aF2191
aF1819
aF1403
aF2009
aF1250
aF1751
aF1226
aF1533
aF1421
aF2005
aF1093
aF1964
aF1175
aF1879
aF1719
aF1933
aF1453
aF1322
aF2301
aF2210
aF1212
aF1403
aF2135
aF1531
aF1997
aF2107
aF1295
aF1997
aF2095
aF1265
aF1403
aF1997
aF2172
aF1249
aF1997
aF2121
aF1964
aF2191
aF1178
aF2262
aF1327
aF2132
aF1124
aF2244
aF1788
aF1953
aF2157
aF2098
aF1107
aF2105
aF1110
aF1935
aF2169
aF1934
aF2172
aF2313
aF1626
aF2102
aF1458
aF1931
aF2059
aF1898
aF1359
aF1941
aF1457
aF2292
aF1321
asg13
(lp139
S'PULLING'
p140
asbsS'EH'
p141
(igoofy.machine_learning.prepare_data
GMM_structure
p142
(dp143
g7
(lp144
F799
aF814
aF801
aF693
aF756
aF596
aF614
aF595
aF706
aF719
aF609
aF623
aF583
aF836
aF756
aF639
aF756
aF700
aF544
aF690
aF756
aF756
aF715
aF756
aF789
aF870
aF871
aF831
aF797
aF568
aF863
aF826
aF632
aF664
aF870
aF584
aF578
aF664
aF596
aF776
asg9
(lp145
S'1'
asg11
(lp146
F1669
aF1434
aF1501
aF1185
aF1997
aF1438
aF2237
aF1521
aF1746
aF1557
aF1113
aF1252
aF1593
aF1565
aF1997
aF1196
aF1403
aF1383
aF1403
aF1417
aF1997
aF1403
aF1463
aF1403
aF1202
aF1802
aF1438
aF1789
aF1269
aF1387
aF1788
aF1800
aF1288
aF1307
aF1389
aF1235
aF1111
aF1345
aF1247
aF1517
asg13
(lp147
S'LEGS'
p148
asbssS'thinking_out_loud'
p149
(dp150
S'IH'
p151
(igoofy.machine_learning.prepare_data
GMM_structure
p152
(dp153
g7
(lp154
F711
aF523
aF472
aF535
aF499
aF434
aF476
aF852
aF521
aF539
aF546
aF548
aF849
aF630
aF841
aF562
aF696
aF494
aF501
aF723
aF740
aF873
aF872
aF711
aF521
aF579
aF710
aF856
aF814
aF798
aF515
aF673
aF543
aF506
aF514
aF683
aF512
aF512
aF520
aF516
aF550
aF848
aF832
aF870
aF822
aF855
asg9
(lp155
S'1'
asg11
(lp156
F1785
aF1931
aF1650
aF1559
aF1152
aF1236
aF1250
aF2175
aF1629
aF1456
aF1822
aF1817
aF2156
aF1874
aF2163
aF1966
aF1805
aF1623
aF1347
aF1817
aF1820
aF1847
aF1933
aF1803
aF1344
aF1298
aF1916
aF2029
aF1989
aF1897
aF1511
aF1914
aF1460
aF1537
aF1460
aF1919
aF1473
aF1482
aF1510
aF1450
aF1541
aF2084
aF2154
aF2015
aF2046
aF2252
asg13
(lp157
S'THINKING'
p158
asbsS'AW'
p159
(igoofy.machine_learning.prepare_data
GMM_structure
p160
(dp161
g7
(lp162
F712
aF750
aF818
aF735
aF785
aF763
aF554
aF650
aF849
aF670
aF771
aF669
aF703
aF594
aF570
aF668
aF843
aF695
aF832
aF713
aF756
aF544
aF842
aF695
aF670
aF854
aF594
aF664
aF669
aF833
aF577
aF687
aF544
aF756
aF731
aF816
aF544
aF756
aF660
aF800
aF571
aF700
aF610
aF631
aF544
aF756
aF544
aF756
aF756
aF544
aF544
aF756
aF756
aF544
aF522
aF529
aF509
aF537
aF576
aF551
aF610
aF573
aF518
aF537
aF642
aF575
aF643
aF516
aF737
aF426
aF540
aF537
aF727
aF584
aF523
aF519
aF643
aF581
aF537
aF536
aF606
aF580
aF634
aF600
aF617
aF605
aF511
aF559
aF627
aF599
aF622
aF602
aF632
aF584
aF618
aF601
aF593
aF584
aF607
aF658
aF704
aF576
aF548
aF563
aF671
aF651
aF640
aF609
asg9
(lp163
S'1'
asg11
(lp164
F1240
aF1541
aF1831
aF1076
aF1735
aF1195
aF1178
aF1937
aF1887
aF1626
aF1798
aF1539
aF1946
aF1452
aF1188
aF1575
aF1795
aF1181
aF1386
aF1651
aF1403
aF1997
aF0
aF1233
aF1286
aF1461
aF1148
aF1825
aF1094
aF2054
aF1175
aF1868
aF1997
aF1403
aF1166
aF1572
aF1403
aF1997
aF1155
aF1671
aF1716
aF1220
aF1403
aF1797
aF1997
aF1403
aF1997
aF1403
aF1997
aF1403
aF1997
aF1403
aF1403
aF1997
aF1121
aF1739
aF1098
aF1808
aF1075
aF1979
aF1097
aF1738
aF1080
aF1942
aF1394
aF1819
aF1455
aF1802
aF1968
aF1216
aF1461
aF1231
aF1294
aF2129
aF1286
aF1424
aF1484
aF1476
aF1243
aF1471
aF1399
aF1628
aF1429
aF1508
aF1405
aF1621
aF1156
aF1605
aF1374
aF1646
aF1377
aF1631
aF1431
aF1532
aF1421
aF1612
aF1381
aF1560
aF1243
aF1445
aF1721
aF1139
aF1460
aF1232
aF1101
aF1728
aF1294
aF1471
asg13
(lp165
S'OUT'
p166
asbsS'AH'
p167
(igoofy.machine_learning.prepare_data
GMM_structure
p168
(dp169
g7
(lp170
F427
aF524
aF581
aF862
aF582
aF726
aF827
aF509
aF542
aF515
aF517
aF528
aF493
aF468
aF494
aF490
aF443
aF835
aF858
aF826
aF814
aF600
aF546
aF833
aF862
aF861
aF727
aF667
aF476
aF760
aF861
aF853
aF872
aF860
aF864
aF847
aF863
aF863
aF864
aF865
aF873
aF488
aF488
aF618
aF456
aF496
asg9
(lp171
S'0'
asg11
(lp172
F2234
aF1962
aF2220
aF2125
aF2134
aF2227
aF2153
aF1861
aF2195
aF2307
aF2046
aF2236
aF1672
aF1779
aF1593
aF2097
aF2169
aF2241
aF2254
aF2122
aF2075
aF1899
aF2031
aF1975
aF2243
aF2245
aF0
aF2080
aF1388
aF2193
aF2330
aF2172
aF2313
aF2326
aF2315
aF2120
aF2307
aF2310
aF2327
aF2317
aF2318
aF2028
aF1787
aF2092
aF1924
aF1783
asg13
(lp173
S'THINKING'
p174
asbssS'mellow_out'
p175
(dp176
S'OW'
p177
(igoofy.machine_learning.prepare_data
GMM_structure
p178
(dp179
g7
(lp180
F489
aF508
aF477
aF592
aF487
aF544
aF497
aF486
aF520
aF507
aF478
aF539
aF551
aF541
aF518
aF496
aF561
aF589
aF731
aF706
aF481
aF478
aF508
aF630
aF684
aF477
aF656
aF680
aF819
aF818
aF564
aF477
aF596
aF612
aF487
aF505
aF546
aF486
aF505
aF480
aF497
aF478
aF485
aF477
aF710
aF793
aF477
aF480
aF485
aF532
aF600
asg9
(lp181
S'0'
asg11
(lp182
F2029
aF2129
aF2090
aF1989
aF2158
aF2185
aF2185
aF2167
aF2149
aF1321
aF1236
aF2051
aF2082
aF2151
aF1795
aF1994
aF1532
aF1264
aF2116
aF1225
aF2139
aF2091
aF1309
aF1678
aF2117
aF1246
aF1250
aF2173
aF2168
aF1218
aF2169
aF1979
aF2162
aF2120
aF2177
aF2180
aF1946
aF2078
aF1896
aF2168
aF1224
aF2058
aF1310
aF1841
aF1234
aF1350
aF2173
aF2174
aF1302
aF1943
aF2067
asg13
(lp183
S'MELLOW'
p184
asbsS'EH'
p185
(igoofy.machine_learning.prepare_data
GMM_structure
p186
(dp187
g7
(lp188
F676
aF634
aF731
aF538
aF782
aF584
aF657
aF684
aF814
aF637
aF715
aF591
aF577
aF588
aF619
aF658
aF823
aF540
aF477
aF480
aF767
aF755
aF635
aF511
aF486
aF741
aF797
aF783
aF534
aF530
aF823
aF740
aF820
aF815
aF782
aF805
aF822
aF780
aF804
aF763
aF797
aF721
aF778
aF748
aF479
aF494
aF741
aF764
aF687
aF819
aF532
asg9
(lp189
S'1'
asg11
(lp190
F1844
aF1682
aF1755
aF1218
aF1611
aF1471
aF1451
aF1578
aF1316
aF2152
aF1810
aF1235
aF1250
aF1320
aF1240
aF1219
aF2178
aF1733
aF1276
aF2023
aF1658
aF1256
aF1647
aF1291
aF1277
aF2074
aF1769
aF1371
aF1575
aF1989
aF1359
aF1217
aF1340
aF1280
aF1539
aF1520
aF1939
aF1775
aF1986
aF1356
aF2018
aF1238
aF2144
aF2031
aF2049
aF2166
aF1554
aF1550
aF2139
aF1942
aF1792
asg13
(lp191
S'MELLOW'
p192
asbsS'AW'
p193
(igoofy.machine_learning.prepare_data
GMM_structure
p194
(dp195
g7
(lp196
F785
aF807
aF742
aF820
aF681
aF822
aF796
aF780
aF615
aF806
aF757
aF821
aF823
aF821
aF813
aF796
aF566
aF821
aF742
aF764
aF702
aF717
aF807
aF809
aF780
aF732
aF497
aF487
aF596
aF602
aF563
aF733
aF534
aF523
aF681
aF640
aF582
aF684
aF641
aF707
aF657
aF752
aF687
aF725
aF761
aF663
aF732
aF706
aF778
aF600
aF819
asg9
(lp197
S'1'
asg11
(lp198
F1227
aF1289
aF1255
aF1893
aF1332
aF1445
aF1464
aF1354
aF1635
aF1627
aF2054
aF1814
aF1768
aF1630
aF2064
aF1887
aF1390
aF2102
aF1708
aF1852
aF1303
aF1754
aF2144
aF2131
aF1705
aF1780
aF2081
aF1556
aF1357
aF1893
aF1572
aF1904
aF1598
aF1700
aF1385
aF1400
aF1215
aF1248
aF1218
aF1576
aF1858
aF1804
aF1646
aF1228
aF1818
aF1584
aF1372
aF1375
aF1659
aF1215
aF1242
asg13
(lp199
S'OUT'
p200
asbssS'down_to_the_wire'
p201
(dp202
S'AY'
p203
(igoofy.machine_learning.prepare_data
GMM_structure
p204
(dp205
g7
(lp206
F822
aF828
aF877
aF870
aF789
aF705
aF862
aF834
aF786
aF853
aF842
aF866
aF811
aF692
aF652
aF834
aF896
aF643
aF675
aF849
aF643
aF854
aF792
aF667
aF788
aF862
aF842
aF861
aF791
aF722
aF812
aF696
aF833
aF800
aF851
aF891
aF829
aF728
aF694
aF603
aF775
aF639
aF770
aF790
aF662
aF689
aF690
aF710
aF777
aF632
aF615
aF557
aF671
aF854
asg9
(lp207
S'1'
asg11
(lp208
F1428
aF2353
aF2125
aF1881
aF1686
aF1967
aF2103
aF1759
aF1348
aF1934
aF1850
aF2250
aF2320
aF1696
aF1359
aF1888
aF2168
aF1446
aF1019
aF1769
aF1269
aF1917
aF1934
aF1219
aF1223
aF1773
aF1658
aF1773
aF1494
aF1378
aF1493
aF1428
aF1668
aF1746
aF1893
aF1900
aF1260
aF1381
aF1109
aF1052
aF1190
aF1330
aF1207
aF1853
aF1248
aF979
aF1105
aF1028
aF1221
aF1280
aF2117
aF1191
aF2038
aF1425
asg13
(lp209
S'WIRE'
p210
asbsS'AH'
p211
(igoofy.machine_learning.prepare_data
GMM_structure
p212
(dp213
g7
(lp214
F487
aF518
aF493
aF516
aF515
aF538
aF607
aF532
aF786
aF638
aF880
aF577
aF678
aF502
aF749
aF603
aF480
aF511
aF508
aF573
aF452
aF653
aF499
aF537
aF488
aF493
aF652
aF854
aF596
aF703
aF708
aF562
aF441
aF451
aF524
aF522
aF448
aF667
aF443
aF647
aF791
aF492
aF437
aF677
aF548
aF629
aF556
aF694
aF550
aF631
aF819
aF512
aF652
aF523
aF526
aF574
aF586
aF545
aF782
aF528
aF724
aF545
aF675
aF558
aF631
aF522
aF501
aF720
aF528
aF567
aF487
aF506
aF512
aF561
aF590
aF542
aF891
aF576
aF641
aF644
aF438
aF555
aF847
aF550
aF578
aF431
aF726
aF587
aF682
aF415
aF703
aF538
aF906
aF520
aF908
aF548
aF730
aF495
aF454
aF528
aF524
asg9
(lp215
S'0'
asg11
(lp216
F2099
aF2007
aF1719
aF1281
aF2054
aF1444
aF2149
aF1605
aF2031
aF2069
aF0
aF1870
aF0
aF1865
aF2176
aF2001
aF1540
aF2413
aF2145
aF1231
aF1683
aF2042
aF1554
aF1209
aF1497
aF1402
aF2132
aF2213
aF1874
aF1941
aF2157
aF1087
aF1360
aF2005
aF983
aF2032
aF1778
aF1827
aF1481
aF2154
aF1992
aF1889
aF1551
aF2217
aF2252
aF1721
aF1379
aF2305
aF2251
aF1723
aF2430
aF1659
aF2175
aF1884
aF2218
aF1569
aF2142
aF1355
aF2096
aF1989
aF2364
aF1642
aF2160
aF1557
aF2259
aF1741
aF1921
aF2063
aF2017
aF1466
aF1865
aF1620
aF1884
aF1775
aF2147
aF1967
aF2387
aF1671
aF2137
aF2105
aF1137
aF1673
aF2276
aF1874
aF1941
aF1807
aF2111
aF2056
aF1941
aF2012
aF2110
aF2120
aF2311
aF1934
aF0
aF1907
aF1898
aF1553
aF1678
aF1793
aF2322
asg13
(lp217
S'TO'
p218
asbsS'UW'
p219
(igoofy.machine_learning.prepare_data
GMM_structure
p220
(dp221
g7
(lp222
F874
aF570
aF742
aF624
aF580
aF862
aF825
asg9
(lp223
S'1'
asg11
(lp224
F2109
aF1987
aF2291
aF2081
aF2090
aF2088
aF2156
asg13
(lp225
S'TO'
p226
asbsS'AW'
p227
(igoofy.machine_learning.prepare_data
GMM_structure
p228
(dp229
g7
(lp230
F778
aF774
aF721
aF592
aF613
aF598
aF700
aF621
aF673
aF765
aF735
aF731
aF747
aF548
aF499
aF555
aF691
aF774
aF629
aF770
aF572
aF700
aF718
aF699
aF729
aF729
aF625
aF860
aF813
aF892
aF608
aF739
aF677
aF714
aF878
aF726
aF679
aF842
aF657
aF785
aF697
aF727
aF817
aF821
aF821
aF784
aF625
aF635
aF819
aF752
aF764
asg9
(lp231
S'1'
asg11
(lp232
F1859
aF1761
aF1752
aF1165
aF1692
aF1890
aF1715
aF1416
aF1480
aF1920
aF1938
aF2005
aF1581
aF1276
aF1355
aF1333
aF1723
aF1703
aF1658
aF1805
aF1411
aF2012
aF1231
aF1810
aF1682
aF1682
aF1538
aF1909
aF2034
aF2176
aF1728
aF1526
aF1427
aF2028
aF2277
aF1642
aF1602
aF1876
aF1722
aF1677
aF1552
aF1767
aF1732
aF1758
aF1546
aF1712
aF1562
aF1630
aF2158
aF1521
aF1741
asg13
(lp233
S'DOWN'
p234
asbsS'ER'
p235
(igoofy.machine_learning.prepare_data
GMM_structure
p236
(dp237
g7
(lp238
F645
aF639
aF600
aF425
aF489
aF508
aF442
aF800
aF552
aF568
aF616
aF711
aF484
aF448
aF532
aF871
aF526
aF580
aF482
aF509
aF480
aF502
aF492
aF524
aF531
aF500
aF442
aF516
aF530
aF486
aF549
aF837
aF895
aF501
aF488
aF410
aF770
aF463
aF735
aF427
aF621
aF448
aF568
aF543
aF549
aF580
asg9
(lp239
S'0'
asg11
(lp240
F1106
aF1385
aF1125
aF1022
aF1073
aF1117
aF1148
aF1719
aF1271
aF986
aF1481
aF0
aF1286
aF1182
aF1534
aF1737
aF1854
aF966
aF1072
aF1458
aF1071
aF1379
aF1153
aF1185
aF1399
aF1019
aF1222
aF1190
aF1174
aF1228
aF1359
aF2265
aF2187
aF1320
aF1390
aF1373
aF2285
aF1334
aF2040
aF1470
aF1973
aF1336
aF1413
aF1146
aF1108
aF1218
asg13
(lp241
S'WIRE'
p242
asbssS'catch_some_zs'
p243
(dp244
S'IY'
p245
(igoofy.machine_learning.prepare_data
GMM_structure
p246
(dp247
g7
(lp248
F477
aF491
aF477
aF477
aF823
aF487
aF681
aF479
aF544
aF495
aF811
aF500
aF479
aF507
aF477
aF575
aF492
aF495
aF498
aF817
aF544
aF544
aF544
aF817
aF813
aF811
aF820
aF818
aF823
aF756
aF749
aF821
aF496
aF815
aF822
aF810
aF818
aF794
aF814
aF823
aF821
aF823
aF805
aF478
asg9
(lp249
S'0'
asg11
(lp250
F2013
aF2185
aF2112
aF1499
aF2010
aF1744
aF1993
aF2119
aF1974
aF2184
aF2023
aF2179
aF1997
aF1566
aF1664
aF1876
aF2174
aF2177
aF2166
aF2104
aF1997
aF1997
aF1403
aF2163
aF2179
aF2162
aF2146
aF2184
aF2184
aF1997
aF1917
aF2183
aF1949
aF2180
aF2164
aF2185
aF2182
aF2184
aF2184
aF2124
aF2151
aF2169
aF2171
aF2156
asg13
(lp251
S'ZZZZ'
p252
asbsS'AH'
p253
(igoofy.machine_learning.prepare_data
GMM_structure
p254
(dp255
g7
(lp256
F727
aF671
aF739
aF727
aF563
aF783
aF487
aF757
aF585
aF661
aF625
aF650
aF762
aF806
aF749
aF823
aF667
aF660
aF655
aF606
aF544
aF756
aF544
aF756
aF756
aF526
aF517
aF514
aF536
aF530
aF570
aF544
aF544
aF477
aF541
aF659
aF544
aF544
aF523
aF544
aF544
aF577
aF512
aF529
aF495
aF520
aF544
aF572
aF543
aF572
aF506
aF715
asg9
(lp257
S'1'
asg11
(lp258
F1865
aF1440
aF1716
aF2183
aF1867
aF2096
aF1888
aF1701
aF1216
aF1429
aF1852
aF1396
aF0
aF2171
aF2137
aF2003
aF1374
aF1387
aF1352
aF1730
aF1997
aF1403
aF1997
aF1403
aF1997
aF1343
aF1396
aF1342
aF1311
aF1435
aF1478
aF1403
aF1403
aF1967
aF1496
aF1936
aF1403
aF1997
aF1519
aF1403
aF1997
aF1589
aF1473
aF1413
aF1429
aF1478
aF1403
aF1693
aF1630
aF1574
aF1563
aF1615
asg13
(lp259
S'SOME'
p260
asbsS'AE'
p261
(igoofy.machine_learning.prepare_data
GMM_structure
p262
(dp263
g7
(lp264
F745
aF789
aF734
aF746
aF564
aF680
aF782
aF715
aF822
aF794
aF514
aF800
aF709
aF638
aF724
aF552
aF791
aF795
aF798
aF527
aF756
aF756
aF608
aF621
aF626
aF595
aF602
aF557
aF756
aF724
aF589
aF795
aF756
aF756
aF612
aF756
aF756
aF550
aF628
aF604
aF661
aF616
aF756
aF555
aF586
aF555
aF639
aF756
asg9
(lp265
S'1'
asg11
(lp266
F1223
aF1475
aF1272
aF1418
aF1222
aF1260
aF1219
aF1279
aF1909
aF1488
aF1225
aF1524
aF1403
aF1363
aF1299
aF1221
aF1553
aF1535
aF1582
aF1266
aF1403
aF1403
aF1595
aF1525
aF1596
aF1643
aF1480
aF1438
aF1997
aF1216
aF1421
aF1215
aF1997
aF1403
aF1401
aF1997
aF1403
aF1346
aF1442
aF1505
aF1488
aF1437
aF1997
aF1284
aF1319
aF1358
aF1366
aF1329
asg13
(lp267
S'CATCH'
p268
asbssS'eager_beaver'
p269
(dp270
S'IY'
p271
(igoofy.machine_learning.prepare_data
GMM_structure
p272
(dp273
g7
(lp274
F855
aF669
aF551
aF873
aF602
aF873
aF677
aF436
aF537
aF511
aF547
aF536
aF568
aF524
aF871
aF546
aF568
aF506
aF563
aF874
aF772
aF762
aF858
aF661
aF874
aF554
aF587
aF863
aF847
aF685
aF589
aF874
aF602
aF842
aF460
aF602
aF555
aF874
aF860
aF655
aF477
aF571
aF778
aF773
aF521
aF863
aF503
aF562
aF562
aF569
aF505
aF617
aF864
aF539
aF778
aF781
aF799
aF759
aF562
aF874
aF521
aF860
aF754
aF800
aF768
aF761
aF551
aF873
aF560
aF874
aF566
aF874
aF569
aF875
aF560
aF874
aF816
aF737
aF787
aF772
aF793
aF765
aF796
aF762
aF768
aF749
aF777
aF766
aF778
aF781
aF794
aF765
aF787
aF773
aF782
aF778
aF799
aF759
aF823
aF728
aF864
aF527
aF799
aF759
aF802
aF751
aF551
aF873
asg9
(lp275
S'1'
asg11
(lp276
F2127
aF1993
aF1988
aF2132
aF2040
aF2079
aF2026
aF1989
aF2055
aF2046
aF2067
aF2060
aF2117
aF1999
aF2243
aF1817
aF2054
aF2067
aF1804
aF2250
aF1862
aF1899
aF2158
aF1954
aF2251
aF1796
aF1891
aF2107
aF2153
aF1952
aF1883
aF2174
aF1898
aF2180
aF2141
aF1976
aF1827
aF2239
aF2165
aF1940
aF2083
aF2040
aF1689
aF1772
aF2076
aF2051
aF2027
aF2099
aF2137
aF1980
aF2146
aF1959
aF2289
aF1710
aF2054
aF2073
aF2053
aF2074
aF1940
aF2169
aF1936
aF2152
aF1985
aF2070
aF1900
aF1882
aF1913
aF2186
aF1931
aF2175
aF2004
aF2119
aF1935
aF2172
aF1907
aF2192
aF2044
aF2083
aF2075
aF2052
aF1918
aF1966
aF2034
aF2056
aF1934
aF1951
aF1890
aF1813
aF1918
aF2170
aF2038
aF2088
aF2047
aF2080
aF2017
aF2107
aF2090
aF2036
aF2138
aF1981
aF2192
aF1774
aF2089
aF2037
aF2162
aF1837
aF1857
aF2218
asg13
(lp277
S'EAGER'
p278
asbsS'ER'
p279
(igoofy.machine_learning.prepare_data
GMM_structure
p280
(dp281
g7
(lp282
F530
aF546
aF575
aF601
aF558
aF567
aF701
aF786
aF732
aF819
aF658
aF859
aF646
aF862
aF568
aF616
aF678
aF848
aF567
aF596
aF614
aF453
aF540
aF540
aF576
aF596
aF634
aF516
aF523
aF545
aF580
aF557
aF673
aF483
aF749
aF789
aF591
aF580
aF552
aF533
aF772
aF779
aF572
aF477
aF639
aF578
aF695
aF840
aF595
aF874
aF861
aF617
aF553
aF644
aF513
aF528
aF522
aF520
aF572
aF592
aF568
aF652
aF556
aF491
aF623
aF448
aF580
aF595
aF571
aF595
aF568
aF592
aF569
aF588
aF574
aF593
aF514
aF532
aF508
aF533
aF509
aF532
aF505
aF538
aF441
aF642
aF595
aF463
aF510
aF531
aF519
aF522
aF520
aF520
aF521
aF519
aF515
aF527
aF525
aF524
aF638
aF570
aF509
aF533
aF559
aF489
aF577
aF599
asg9
(lp283
S'0'
asg11
(lp284
F1369
aF1311
aF1361
aF1320
aF1413
aF1267
aF1666
aF1119
aF1487
aF1212
aF1358
aF1315
aF1407
aF1276
aF1409
aF1331
aF1403
aF1275
aF1413
aF1334
aF1965
aF1073
aF1367
aF1321
aF1439
aF1315
aF1672
aF1129
aF1425
aF1270
aF1539
aF1204
aF1483
aF1239
aF1374
aF1309
aF1391
aF1343
aF1402
aF1292
aF1393
aF1284
aF2180
aF1159
aF1341
aF1332
aF1328
aF1347
aF1302
aF1381
aF1435
aF1261
aF1369
aF1432
aF1351
aF1322
aF1360
aF1313
aF1363
aF1328
aF1229
aF1483
aF1591
aF1153
aF1947
aF1071
aF1391
aF1310
aF1373
aF1321
aF1353
aF1325
aF1363
aF1329
aF1368
aF1333
aF1347
aF1326
aF1325
aF1348
aF1216
aF0
aF1193
aF1517
aF1215
aF0
aF2014
aF1082
aF1246
aF1466
aF1343
aF1330
aF1324
aF1349
aF1349
aF1327
aF1343
aF1331
aF1351
aF1330
aF1665
aF1170
aF1348
aF1326
aF1642
aF1158
aF1295
aF1430
asg13
(lp285
S'EAGER'
p286
asbss.