(dp1
S'fair_and_square'
p2
(dp3
S'AE'
p4
(igoofy.machine_learning.prepare_data
GMM_structure
p5
(dp6
S'norm_F1'
p7
(lp8
F485
aF821
aF515
aF754
aF810
aF820
aF823
aF823
asS'stress'
p9
(lp10
S'1'
asS'norm_F2'
p11
(lp12
F1330
aF1288
aF1421
aF2185
aF0
aF2143
aF2175
aF2134
asS'words'
p13
(lp14
S'AND'
p15
asbsS'EH'
p16
(igoofy.machine_learning.prepare_data
GMM_structure
p17
(dp18
g7
(lp19
F777
aF688
aF543
aF586
aF704
aF766
aF624
aF811
aF478
aF718
aF730
aF743
aF512
aF628
aF537
aF593
aF798
aF498
aF615
aF521
aF559
aF568
aF554
aF573
asg9
(lp20
S'1'
asg11
(lp21
F2156
aF1614
aF2128
aF1684
aF2116
aF1708
aF2183
aF1496
aF1471
aF1444
aF1999
aF1881
aF1403
aF1997
aF1307
aF1650
aF2083
aF1251
aF2142
aF1306
aF1547
aF1378
aF1670
aF1296
asg13
(lp22
S'FAIR'
p23
asbssS'a_piece_of_cake'
p24
(dp25
S'IY'
p26
(igoofy.machine_learning.prepare_data
GMM_structure
p27
(dp28
g7
(lp29
F871
aF851
aF853
aF873
aF527
aF517
aF481
aF490
aF777
aF479
aF812
aF585
asg9
(lp30
S'1'
asg11
(lp31
F2326
aF2311
aF2300
aF2319
aF2120
aF1880
aF2160
aF1904
aF2158
aF1611
aF2298
aF2020
asg13
(lp32
S'PIECE'
p33
asbsS'AH'
p34
(igoofy.machine_learning.prepare_data
GMM_structure
p35
(dp36
g7
(lp37
F535
aF598
aF488
aF640
aF491
aF627
aF565
aF605
aF869
aF596
aF778
aF523
aF845
aF621
aF750
aF558
aF513
aF528
aF740
aF807
aF738
aF489
aF819
aF477
asg9
(lp38
S'0'
asg11
(lp39
F1546
aF1492
aF1353
aF1546
aF1665
aF1351
aF1582
aF1507
aF1474
aF1227
aF1316
aF1397
aF1218
aF1505
aF1376
aF1327
aF1332
aF1610
aF1348
aF2308
aF1326
aF1529
aF1214
aF1486
asg13
(lp40
S'A'
asbsS'EY'
p41
(igoofy.machine_learning.prepare_data
GMM_structure
p42
(dp43
g7
(lp44
F597
aF621
aF628
aF557
aF609
aF782
aF652
aF803
aF783
aF574
aF562
aF719
asg9
(lp45
S'1'
asg11
(lp46
F1435
aF1589
aF1484
aF1392
aF1980
aF2207
aF1918
aF2193
aF0
aF1533
aF1647
aF2080
asg13
(lp47
S'CAKE'
p48
asbssS'blow_a_fuse'
p49
(dp50
S'OW'
p51
(igoofy.machine_learning.prepare_data
GMM_structure
p52
(dp53
g7
(lp54
F747
aF533
aF487
aF705
aF797
aF655
aF736
aF821
aF823
aF623
aF725
aF511
asg9
(lp55
S'1'
asg11
(lp56
F2070
aF2000
aF1972
aF2094
aF2154
aF1714
aF2150
aF1229
aF2142
aF2002
aF2181
aF2178
asg13
(lp57
S'BLOW'
p58
asbsS'AH'
p59
(igoofy.machine_learning.prepare_data
GMM_structure
p60
(dp61
g7
(lp62
F726
aF819
aF679
aF765
aF656
aF797
aF737
aF543
aF554
aF748
aF809
asg9
(lp63
S'0'
asg11
(lp64
F1787
aF1880
aF1912
aF1747
aF1619
aF2113
aF1318
aF1836
aF1307
aF1407
aF1529
asg13
(lp65
S'A'
asbsS'UW'
p66
(igoofy.machine_learning.prepare_data
GMM_structure
p67
(dp68
g7
(lp69
F477
aF598
aF783
aF480
aF497
aF497
aF477
aF586
aF573
aF515
aF477
aF630
asg9
(lp70
S'1'
asg11
(lp71
F1243
aF1220
aF1216
aF1258
aF1326
aF1273
aF1633
aF2035
aF1651
aF1220
aF1511
aF1392
asg13
(lp72
S'FUSE'
p73
asbssS'get_cold_feet'
p74
(dp75
S'OW'
p76
(igoofy.machine_learning.prepare_data
GMM_structure
p77
(dp78
g7
(lp79
F776
aF744
aF756
aF759
aF713
aF698
aF778
aF711
aF725
aF766
aF703
aF729
asg9
(lp80
S'1'
asg11
(lp81
F2157
aF2145
aF1997
aF2151
aF2016
aF2092
aF2107
aF2011
aF2152
aF2142
aF2161
aF2153
asg13
(lp82
S'COLD'
p83
asbsS'IY'
p84
(igoofy.machine_learning.prepare_data
GMM_structure
p85
(dp86
g7
(lp87
F484
aF477
aF544
aF479
aF479
aF482
aF485
aF479
aF477
aF481
aF481
aF477
asg9
(lp88
S'1'
asg11
(lp89
F1613
aF1644
aF1403
aF1629
aF1861
aF1751
aF1725
aF1867
aF1627
aF1652
aF1601
aF1622
asg13
(lp90
S'FEET'
p91
asbsS'EH'
p92
(igoofy.machine_learning.prepare_data
GMM_structure
p93
(dp94
g7
(lp95
F690
aF728
aF712
aF758
aF770
aF687
aF760
aF747
aF703
aF766
aF744
asg9
(lp96
S'1'
asg11
(lp97
F1330
aF1311
aF1320
aF1223
aF1257
aF1268
aF1222
aF1321
aF1306
aF1338
aF1324
asg13
(lp98
S'GET'
p99
asbssS'pulling_your_legs'
p100
(dp101
S'IH'
p102
(igoofy.machine_learning.prepare_data
GMM_structure
p103
(dp104
g7
(lp105
F516
aF818
aF706
aF832
aF760
aF873
aF870
aF839
aF864
aF823
aF657
asg9
(lp106
S'0'
asg11
(lp107
F1555
aF2160
aF2070
aF2090
aF1881
aF2241
aF1969
aF1926
aF1957
aF1983
aF1885
asg13
(lp108
S'PULLING'
p109
asbsS'UH'
p110
(igoofy.machine_learning.prepare_data
GMM_structure
p111
(dp112
g7
(lp113
F593
aF864
aF453
aF658
aF456
aF812
aF556
aF554
aF491
aF585
aF546
aF576
aF539
aF544
aF563
aF501
aF601
aF515
aF545
aF506
aF636
aF470
asg9
(lp114
S'1'
asg11
(lp115
F1750
aF2248
aF1849
aF1161
aF1961
aF1635
aF1962
aF2109
aF1126
aF1815
aF1309
aF2130
aF1232
aF1403
aF2173
aF1279
aF2129
aF1209
aF2098
aF1187
aF2182
aF1226
asg13
(lp116
S'PULLING'
p117
asbsS'EH'
p118
(igoofy.machine_learning.prepare_data
GMM_structure
p119
(dp120
g7
(lp121
F628
aF672
aF627
aF709
aF795
aF597
aF614
aF756
aF696
aF620
aF726
aF837
asg9
(lp122
S'1'
asg11
(lp123
F1247
aF1630
aF1134
aF1593
aF1684
aF1435
aF1469
aF1997
aF1422
aF1506
aF1532
aF1507
asg13
(lp124
S'LEGS'
p125
asbssS'thinking_out_loud'
p126
(dp127
S'IH'
p128
(igoofy.machine_learning.prepare_data
GMM_structure
p129
(dp130
g7
(lp131
F562
aF848
aF622
aF860
aF549
aF549
aF565
aF518
aF565
aF544
aF474
aF597
asg9
(lp132
S'1'
asg11
(lp133
F1617
aF2199
aF1840
aF2148
aF1838
aF1823
aF1910
aF1632
aF1493
aF1332
aF1277
aF1265
asg13
(lp134
S'THINKING'
p135
asbsS'AW'
p136
(igoofy.machine_learning.prepare_data
GMM_structure
p137
(dp138
g7
(lp139
F533
aF639
aF568
aF679
aF652
aF845
aF567
aF651
aF666
aF856
aF843
aF694
aF832
aF707
aF837
aF704
aF724
aF821
aF849
aF682
aF827
aF699
aF829
aF698
asg9
(lp140
S'1'
asg11
(lp141
F1170
aF1844
aF1207
aF1833
aF1114
aF2106
aF1134
aF1782
aF1289
aF1447
aF0
aF1232
aF1240
aF1477
aF1758
aF1195
aF1216
aF1962
aF2304
aF1558
aF1923
aF1425
aF2239
aF1500
asg13
(lp142
S'OUT'
p143
asbsS'AH'
p144
(igoofy.machine_learning.prepare_data
GMM_structure
p145
(dp146
g7
(lp147
F865
aF505
aF481
aF522
aF529
aF515
aF496
aF540
aF490
aF525
aF600
aF476
asg9
(lp148
S'0'
asg11
(lp149
F2170
aF1561
aF1740
aF1735
aF2226
aF2045
aF2173
aF2216
aF2129
aF1607
aF2175
aF1796
asg13
(lp150
S'THINKING'
p151
asbssS'mellow_out'
p152
(dp153
S'OW'
p154
(igoofy.machine_learning.prepare_data
GMM_structure
p155
(dp156
g7
(lp157
F751
aF659
aF528
aF533
aF502
aF539
aF553
aF522
aF490
aF720
aF579
aF509
asg9
(lp158
S'0'
asg11
(lp159
F2146
aF2050
aF1719
aF2158
aF2071
aF2052
aF1481
aF2165
aF2081
aF2181
aF2185
aF2171
asg13
(lp160
S'MELLOW'
p161
asbsS'EH'
p162
(igoofy.machine_learning.prepare_data
GMM_structure
p163
(dp164
g7
(lp165
F478
aF496
aF605
aF598
aF646
aF590
aF574
aF815
aF672
aF478
aF548
aF808
asg9
(lp166
S'1'
asg11
(lp167
F1312
aF1234
aF1271
aF1332
aF1244
aF1235
aF2184
aF1585
aF1770
aF1403
aF1469
aF1566
asg13
(lp168
S'MELLOW'
p169
asbsS'AW'
p170
(igoofy.machine_learning.prepare_data
GMM_structure
p171
(dp172
g7
(lp173
F721
aF795
aF817
aF819
aF802
aF821
aF823
aF613
aF788
aF752
aF822
aF633
asg9
(lp174
S'1'
asg11
(lp175
F1642
aF1815
aF2110
aF1610
aF1785
aF1812
aF1435
aF1349
aF1249
aF1516
aF1446
aF1363
asg13
(lp176
S'OUT'
p177
asbssS'down_to_the_wire'
p178
(dp179
S'AY'
p180
(igoofy.machine_learning.prepare_data
GMM_structure
p181
(dp182
g7
(lp183
F865
aF844
aF663
aF694
aF845
aF869
aF852
aF783
aF860
aF884
aF747
aF788
asg9
(lp184
S'1'
asg11
(lp185
F1910
aF1917
aF1801
aF1713
aF2099
aF2233
aF1934
aF1405
aF1810
aF2098
aF1959
aF1663
asg13
(lp186
S'WIRE'
p187
asbsS'AH'
p188
(igoofy.machine_learning.prepare_data
GMM_structure
p189
(dp190
g7
(lp191
F523
aF634
aF650
aF736
aF900
aF617
aF878
aF640
aF517
aF525
aF501
aF537
aF513
aF574
aF487
aF509
aF743
aF552
aF550
aF551
aF861
aF588
aF792
aF670
asg9
(lp192
S'0'
asg11
(lp193
F1450
aF2179
aF1866
aF2186
aF2286
aF1831
aF2095
aF2137
aF1848
aF990
aF1604
aF1187
aF2144
aF1233
aF1572
aF2322
aF2237
aF1846
aF0
aF1816
aF0
aF1891
aF2011
aF2080
asg13
(lp194
S'TO'
p195
asbsS'AW'
p196
(igoofy.machine_learning.prepare_data
GMM_structure
p197
(dp198
g7
(lp199
F578
aF564
aF541
aF544
aF773
aF726
aF767
aF661
aF607
aF718
aF556
aF552
asg9
(lp200
S'1'
asg11
(lp201
F1261
aF1361
aF1308
aF1276
aF1724
aF2009
aF1922
aF1502
aF1489
aF1779
aF1877
aF1727
asg13
(lp202
S'DOWN'
p203
asbssS'catch_some_zs'
p204
(dp205
S'IY'
p206
(igoofy.machine_learning.prepare_data
GMM_structure
p207
(dp208
g7
(lp209
F478
aF806
aF481
aF611
aF497
aF544
aF513
aF506
aF486
aF501
aF536
aF485
asg9
(lp210
S'0'
asg11
(lp211
F1489
aF2120
aF1746
aF1984
aF2175
aF2049
aF2181
aF2179
aF1756
aF1576
aF1997
aF1603
asg13
(lp212
S'ZZZZ'
p213
asbsS'AH'
p214
(igoofy.machine_learning.prepare_data
GMM_structure
p215
(dp216
g7
(lp217
F721
aF507
aF767
aF524
aF796
aF584
aF627
aF638
aF780
aF801
aF820
aF778
asg9
(lp218
S'1'
asg11
(lp219
F2184
aF1701
aF2095
aF1898
aF1545
aF1234
aF1405
aF1393
aF2089
aF2168
aF0
aF2160
asg13
(lp220
S'SOME'
p221
asbsS'AE'
p222
(igoofy.machine_learning.prepare_data
GMM_structure
p223
(dp224
g7
(lp225
F751
aF637
aF702
aF816
aF657
aF822
aF810
aF806
aF685
aF648
aF595
aF687
asg9
(lp226
S'1'
asg11
(lp227
F1427
aF1280
aF1259
aF1218
aF1379
aF1817
aF1515
aF1528
aF1255
aF1356
aF1403
aF1337
asg13
(lp228
S'CATCH'
p229
asbssS'eager_beaver'
p230
(dp231
S'IY'
p232
(igoofy.machine_learning.prepare_data
GMM_structure
p233
(dp234
g7
(lp235
F671
aF445
aF687
aF838
aF857
aF663
aF567
aF847
aF874
aF555
aF863
aF649
aF560
aF874
aF569
aF515
aF870
aF543
aF567
aF525
aF545
aF534
aF533
aF509
asg9
(lp236
S'1'
asg11
(lp237
F2005
aF1958
aF1931
aF2055
aF2171
aF1905
aF1879
aF2055
aF2248
aF1800
aF2166
aF1944
aF1809
aF2248
aF2045
aF2075
aF2236
aF1827
aF2120
aF1995
aF2067
aF2059
aF2049
aF2034
asg13
(lp238
S'EAGER'
p239
asbsS'ER'
p240
(igoofy.machine_learning.prepare_data
GMM_structure
p241
(dp242
g7
(lp243
F678
aF806
aF588
aF486
aF530
aF550
aF681
aF506
aF577
aF595
aF543
aF546
aF573
aF593
aF659
aF857
aF568
aF619
aF645
aF862
aF664
aF857
aF764
aF794
asg9
(lp244
S'0'
asg11
(lp245
F1743
aF1094
aF1706
aF1108
aF1497
aF1227
aF1772
aF1095
aF1443
aF1309
aF1368
aF1323
aF1405
aF1339
aF1409
aF1271
aF1421
aF1316
aF1414
aF1271
aF1360
aF1314
aF1536
aF1181
asg13
(lp246
S'EAGER'
p247
asbss.