(lp1
(lp2
(igoofy.machine_learning.prepare_data
GMM_structure
p3
(dp4
S'norm_F1'
p5
(lp6
F535
aF871
aF598
aF535
aF871
aF598
aF597
aF488
aF488
aF851
aF488
aF851
aF640
aF488
aF851
aF640
aF621
aF491
aF491
aF853
aF491
aF853
aF627
aF491
aF853
aF627
aF628
aF565
aF565
aF873
aF565
aF873
aF605
aF565
aF873
aF605
aF557
aF747
aF726
aF533
aF819
aF487
aF679
aF705
aF765
aF751
aF721
aF751
aF721
aF478
aF637
aF507
aF637
aF507
aF806
aF702
aF767
aF702
aF767
aF481
aF816
aF524
aF816
aF524
aF611
aF578
aF523
aF578
aF523
aF634
aF564
aF650
aF564
aF650
aF736
aF541
aF900
aF541
aF900
aF617
aF544
aF878
aF544
aF878
aF640
aF671
aF671
aF678
aF445
aF687
aF687
aF588
aF838
aF857
aF857
aF530
aF663
aF567
aF567
aF681
aF847
aF704
aF480
aF690
aF776
aF484
aF728
aF744
aF477
aF756
aF544
aF712
aF759
aF479
aF562
aF865
aF848
aF505
aF622
aF481
aF860
aF522
aF869
aF869
aF527
aF869
aF527
aF596
aF869
aF527
aF596
aF609
aF778
aF778
aF517
aF778
aF517
aF523
aF778
aF517
aF523
aF782
aF845
aF845
aF481
aF845
aF481
aF621
aF845
aF481
aF621
aF652
aF750
aF750
aF490
aF750
aF490
aF558
aF750
aF490
aF558
aF803
aF797
aF656
aF655
aF797
aF736
aF737
aF821
aF543
aF657
aF796
aF657
aF796
aF497
aF822
aF584
aF822
aF584
aF544
aF810
aF627
aF810
aF627
aF513
aF806
aF638
aF806
aF638
aF506
aF773
aF517
aF773
aF517
aF525
aF726
aF501
aF726
aF501
aF537
aF767
aF513
aF767
aF513
aF574
aF661
aF487
aF661
aF487
aF509
aF874
aF874
aF577
aF555
aF863
aF863
aF543
aF649
aF560
aF560
aF573
aF874
aF569
aF569
aF659
aF515
aF730
aF477
aF758
aF713
aF479
aF770
aF698
aF482
aF687
aF778
aF485
aF760
aF711
aF479
aF549
aF529
aF549
aF515
aF565
aF496
aF518
aF540
aF513
aF513
aF777
aF513
aF777
aF528
aF513
aF777
aF528
aF783
aF740
aF740
aF479
aF740
aF479
aF807
aF740
aF479
aF807
aF574
aF738
aF738
aF812
aF738
aF812
aF489
aF738
aF812
aF489
aF562
aF819
aF819
aF585
aF819
aF585
aF477
aF819
aF585
aF477
aF719
aF823
aF554
aF623
aF812
aF725
aF748
aF511
aF809
aF685
aF780
aF685
aF780
aF486
aF648
aF801
aF648
aF801
aF501
aF595
aF820
aF595
aF820
aF536
aF687
aF778
aF687
aF778
aF485
aF607
aF743
aF607
aF743
aF552
aF718
aF550
aF718
aF550
aF551
aF556
aF861
aF556
aF861
aF588
aF552
aF792
aF552
aF792
aF670
aF870
aF870
aF568
aF543
aF567
aF567
aF645
aF525
aF545
aF545
aF664
aF534
aF533
aF533
aF764
aF509
aF798
aF654
aF615
aF814
aF747
aF725
aF477
aF703
aF766
aF481
aF766
aF703
aF481
aF744
aF729
aF477
aF565
aF490
aF544
aF525
aF474
aF600
aF597
aF476
asS'stress'
p7
(lp8
S'0'
aS'1'
aS'0'
aS'1'
asS'norm_F2'
p9
(lp10
F1546
aF2326
aF1492
aF1546
aF2326
aF1492
aF1435
aF1353
aF1353
aF2311
aF1353
aF2311
aF1546
aF1353
aF2311
aF1546
aF1589
aF1665
aF1665
aF2300
aF1665
aF2300
aF1351
aF1665
aF2300
aF1351
aF1484
aF1582
aF1582
aF2319
aF1582
aF2319
aF1507
aF1582
aF2319
aF1507
aF1392
aF2070
aF1787
aF2000
aF1880
aF1972
aF1912
aF2094
aF1747
aF1427
aF2184
aF1427
aF2184
aF1489
aF1280
aF1701
aF1280
aF1701
aF2120
aF1259
aF2095
aF1259
aF2095
aF1746
aF1218
aF1898
aF1218
aF1898
aF1984
aF1261
aF1450
aF1261
aF1450
aF2179
aF1361
aF1866
aF1361
aF1866
aF2186
aF1308
aF2286
aF1308
aF2286
aF1831
aF1276
aF2095
aF1276
aF2095
aF2137
aF2005
aF2005
aF1743
aF1958
aF1931
aF1931
aF1706
aF2055
aF2171
aF2171
aF1497
aF1905
aF1879
aF1879
aF1772
aF2055
aF2116
aF1276
aF1330
aF2157
aF1613
aF1311
aF2145
aF1644
aF1997
aF1403
aF1320
aF2151
aF1629
aF1617
aF2170
aF2199
aF1561
aF1840
aF1740
aF2148
aF1735
aF1474
aF1474
aF2120
aF1474
aF2120
aF1227
aF1474
aF2120
aF1227
aF1980
aF1316
aF1316
aF1880
aF1316
aF1880
aF1397
aF1316
aF1880
aF1397
aF2207
aF1218
aF1218
aF2160
aF1218
aF2160
aF1505
aF1218
aF2160
aF1505
aF1918
aF1376
aF1376
aF1904
aF1376
aF1904
aF1327
aF1376
aF1904
aF1327
aF2193
aF2154
aF1619
aF1714
aF2113
aF2150
aF1318
aF1229
aF1836
aF1379
aF1545
aF1379
aF1545
aF2175
aF1817
aF1234
aF1817
aF1234
aF2049
aF1515
aF1405
aF1515
aF1405
aF2181
aF1528
aF1393
aF1528
aF1393
aF2179
aF1724
aF1848
aF1724
aF1848
aF990
aF2009
aF1604
aF2009
aF1604
aF1187
aF1922
aF2144
aF1922
aF2144
aF1233
aF1502
aF1572
aF1502
aF1572
aF2322
aF2248
aF2248
aF1443
aF1800
aF2166
aF2166
aF1368
aF1944
aF1809
aF1809
aF1405
aF2248
aF2045
aF2045
aF1409
aF2075
aF1999
aF1220
aF1223
aF2016
aF1861
aF1257
aF2092
aF1751
aF1268
aF2107
aF1725
aF1222
aF2011
aF1867
aF1838
aF2226
aF1823
aF2045
aF1910
aF2173
aF1632
aF2216
aF1332
aF1332
aF2158
aF1332
aF2158
aF1610
aF1332
aF2158
aF1610
aF0
aF1348
aF1348
aF1611
aF1348
aF1611
aF2308
aF1348
aF1611
aF2308
aF1533
aF1326
aF1326
aF2298
aF1326
aF2298
aF1529
aF1326
aF2298
aF1529
aF1647
aF1214
aF1214
aF2020
aF1214
aF2020
aF1486
aF1214
aF2020
aF1486
aF2080
aF2142
aF1307
aF2002
aF1878
aF2181
aF1407
aF2178
aF1529
aF1255
aF2089
aF1255
aF2089
aF1756
aF1356
aF2168
aF1356
aF2168
aF1576
aF1403
aF0
aF1403
aF0
aF1997
aF1337
aF2160
aF1337
aF2160
aF1603
aF1489
aF2237
aF1489
aF2237
aF1846
aF1779
aF0
aF1779
aF0
aF1816
aF1877
aF0
aF1877
aF0
aF1891
aF1727
aF2011
aF1727
aF2011
aF2080
aF2236
aF2236
aF1421
aF1827
aF2120
aF2120
aF1414
aF1995
aF2067
aF2067
aF1360
aF2059
aF2049
aF2049
aF1536
aF2034
aF2083
aF1766
aF2142
aF1653
aF1321
aF2152
aF1627
aF1306
aF2142
aF1652
aF1338
aF2161
aF1601
aF1324
aF2153
aF1622
aF1493
aF2129
aF1332
aF1607
aF1277
aF2175
aF1265
aF1796
asS'words'
p11
(lp12
S'A'
aS'PIECE'
p13
aS'OF'
p14
aS'CAKE'
p15
asS'filename'
p16
c__builtin__
file
p17
sba(igoofy.machine_learning.prepare_data
GMM_structure
p18
(dp19
g5
(lp20
F751
aF721
aF478
aF637
aF702
aF816
aF777
aF485
aF543
aF821
aF624
aF515
aF657
aF822
aF810
aF806
aF478
aF754
aF512
aF810
aF537
aF820
aF685
aF648
aF595
aF687
aF559
aF823
aF554
aF823
asg7
(lp21
S'1'
aS'1'
aS'0'
asg9
(lp22
F1427
aF2184
aF1489
aF1280
aF1259
aF1218
aF2156
aF1330
aF2128
aF1288
aF2183
aF1421
aF1379
aF1817
aF1515
aF1528
aF1471
aF2185
aF1403
aF0
aF1307
aF2143
aF1255
aF1356
aF1403
aF1337
aF1547
aF2175
aF1670
aF2134
asg11
(lp23
S'CATCH'
p24
aS'SOME'
p25
aS'ZZZZ'
p26
asg16
g17
sba(igoofy.machine_learning.prepare_data
GMM_structure
p27
(dp28
g5
(lp29
F777
aF485
aF688
aF777
aF485
aF688
aF543
aF543
aF821
aF586
aF704
aF704
aF480
aF766
aF624
aF624
aF515
aF811
aF690
aF728
aF712
aF478
aF496
aF605
aF598
aF593
aF516
aF864
aF593
aF516
aF864
aF628
aF453
aF818
aF658
aF672
aF456
aF706
aF812
aF627
aF556
aF832
aF503
aF709
aF478
aF478
aF754
aF718
aF730
aF730
aF477
aF743
aF512
aF512
aF810
aF628
aF537
aF537
aF820
aF593
aF758
aF770
aF687
aF760
aF646
aF590
aF574
aF815
aF554
aF760
aF491
aF795
aF585
aF873
aF546
aF597
aF576
aF870
aF539
aF614
aF544
aF756
aF798
aF798
aF654
aF498
aF615
aF615
aF814
aF521
aF559
aF559
aF823
aF568
aF554
aF554
aF823
aF573
aF747
aF703
aF766
aF744
aF672
aF478
aF548
aF808
aF563
aF839
aF501
aF696
aF601
aF864
aF515
aF620
aF545
aF823
aF506
aF726
aF636
aF657
aF470
aF837
asg7
(lp30
S'1'
aS'1'
aS'1'
asg9
(lp31
F2156
aF1330
aF1614
aF2156
aF1330
aF1614
aF2128
aF2128
aF1288
aF1684
aF2116
aF2116
aF1276
aF1708
aF2183
aF2183
aF1421
aF1496
aF1330
aF1311
aF1320
aF1312
aF1234
aF1271
aF1332
aF1750
aF1555
aF2248
aF1750
aF1555
aF2248
aF1247
aF1849
aF2160
aF1161
aF1630
aF1961
aF2070
aF1635
aF1134
aF1962
aF2090
aF1155
aF1593
aF1471
aF1471
aF2185
aF1444
aF1999
aF1999
aF1220
aF1881
aF1403
aF1403
aF0
aF1997
aF1307
aF1307
aF2143
aF1650
aF1223
aF1257
aF1268
aF1222
aF1244
aF1235
aF2184
aF1585
aF2109
aF1881
aF1126
aF1684
aF1815
aF2241
aF1309
aF1435
aF2130
aF1969
aF1232
aF1469
aF1403
aF1997
aF2083
aF2083
aF1766
aF1251
aF2142
aF2142
aF1653
aF1306
aF1547
aF1547
aF2175
aF1378
aF1670
aF1670
aF2134
aF1296
aF1321
aF1306
aF1338
aF1324
aF1770
aF1403
aF1469
aF1566
aF2173
aF1926
aF1279
aF1422
aF2129
aF1957
aF1209
aF1506
aF2098
aF1983
aF1187
aF1532
aF2182
aF1885
aF1226
aF1507
asg11
(lp32
S'FAIR'
p33
aS'AND'
p34
aS'SQUARE'
p35
asg16
g17
sba(igoofy.machine_learning.prepare_data
GMM_structure
p36
(dp37
g5
(lp38
F593
aF516
aF864
aF593
aF516
aF864
aF628
aF453
aF453
aF818
aF453
aF818
aF658
aF456
aF456
aF706
aF456
aF706
aF812
aF556
aF556
aF832
aF562
aF848
aF622
aF860
aF554
aF554
aF760
aF554
aF760
aF491
aF585
aF585
aF873
aF585
aF873
aF546
aF576
aF576
aF870
aF576
aF870
aF539
aF544
aF549
aF549
aF565
aF518
aF563
aF563
aF839
aF563
aF839
aF501
aF601
aF601
aF864
aF601
aF864
aF515
aF545
aF545
aF823
aF545
aF823
aF506
aF636
aF636
aF657
aF636
aF657
aF470
aF565
aF544
aF474
aF597
asg7
(lp39
S'1'
aS'0'
aS'1'
aS'1'
asg9
(lp40
F1750
aF1555
aF2248
aF1750
aF1555
aF2248
aF1247
aF1849
aF1849
aF2160
aF1849
aF2160
aF1161
aF1961
aF1961
aF2070
aF1961
aF2070
aF1635
aF1962
aF1962
aF2090
aF1617
aF2199
aF1840
aF2148
aF2109
aF2109
aF1881
aF2109
aF1881
aF1126
aF1815
aF1815
aF2241
aF1815
aF2241
aF1309
aF2130
aF2130
aF1969
aF2130
aF1969
aF1232
aF1403
aF1838
aF1823
aF1910
aF1632
aF2173
aF2173
aF1926
aF2173
aF1926
aF1279
aF2129
aF2129
aF1957
aF2129
aF1957
aF1209
aF2098
aF2098
aF1983
aF2098
aF1983
aF1187
aF2182
aF2182
aF1885
aF2182
aF1885
aF1226
aF1493
aF1332
aF1277
aF1265
asg11
(lp41
S'PULLING'
p42
aS'PULLING'
p43
aS'YOUR'
p44
aS'LEGS'
p45
asg16
g17
sbag3
a(igoofy.machine_learning.prepare_data
GMM_structure
p46
(dp47
g5
(lp48
F747
aF726
aF477
aF533
aF533
aF819
aF598
aF487
aF487
aF679
aF783
aF705
aF705
aF765
aF480
aF690
aF776
aF728
aF744
aF756
aF712
aF759
aF478
aF751
aF496
aF659
aF605
aF528
aF598
aF533
aF797
aF797
aF656
aF497
aF655
aF655
aF797
aF497
aF736
aF736
aF737
aF477
aF821
aF821
aF543
aF586
aF758
aF713
aF770
aF698
aF687
aF778
aF760
aF711
aF646
aF502
aF590
aF539
aF574
aF553
aF815
aF522
aF823
aF823
aF554
aF573
aF623
aF623
aF812
aF515
aF725
aF725
aF748
aF477
aF511
aF511
aF809
aF630
aF747
aF725
aF703
aF766
aF766
aF703
aF744
aF729
aF672
aF490
aF478
aF720
aF548
aF579
aF808
aF509
asg7
(lp49
S'1'
aS'0'
aS'1'
asg9
(lp50
F2070
aF1787
aF1243
aF2000
aF2000
aF1880
aF1220
aF1972
aF1972
aF1912
aF1216
aF2094
aF2094
aF1747
aF1258
aF1330
aF2157
aF1311
aF2145
aF1997
aF1320
aF2151
aF1312
aF2146
aF1234
aF2050
aF1271
aF1719
aF1332
aF2158
aF2154
aF2154
aF1619
aF1326
aF1714
aF1714
aF2113
aF1273
aF2150
aF2150
aF1318
aF1633
aF1229
aF1229
aF1836
aF2035
aF1223
aF2016
aF1257
aF2092
aF1268
aF2107
aF1222
aF2011
aF1244
aF2071
aF1235
aF2052
aF2184
aF1481
aF1585
aF2165
aF2142
aF2142
aF1307
aF1651
aF2002
aF2002
aF1878
aF1220
aF2181
aF2181
aF1407
aF1511
aF2178
aF2178
aF1529
aF1392
aF1321
aF2152
aF1306
aF2142
aF1338
aF2161
aF1324
aF2153
aF1770
aF2081
aF1403
aF2181
aF1469
aF2185
aF1566
aF2171
asg11
(lp51
S'BLOW'
p52
aS'A'
aS'FUSE'
p53
asg16
g17
sba(igoofy.machine_learning.prepare_data
GMM_structure
p54
(dp55
g5
(lp56
F556
aF832
aF503
aF709
asg7
(lp57
S'1'
aS'0'
aS'1'
aS'1'
asg9
(lp58
F1962
aF2090
aF1155
aF1593
asg11
(lp59
S'PULLING'
p60
aS'PULLING'
p61
aS'YOUR'
p62
aS'LEGS'
p63
asg16
g17
sba(igoofy.machine_learning.prepare_data
GMM_structure
p64
(dp65
g5
(lp66
F578
aF523
aF634
aF865
aF564
aF564
aF650
aF736
aF844
aF541
aF541
aF900
aF617
aF663
aF544
aF544
aF878
aF640
aF694
aF478
aF751
aF721
aF496
aF659
aF795
aF605
aF528
aF817
aF598
aF533
aF819
aF562
aF865
aF533
aF562
aF865
aF533
aF639
aF848
aF505
aF568
aF848
aF505
aF568
aF679
aF622
aF481
aF652
aF622
aF481
aF652
aF845
aF860
aF522
aF567
aF860
aF522
aF567
aF651
aF773
aF773
aF517
aF525
aF845
aF726
aF726
aF501
aF537
aF869
aF767
aF767
aF513
aF574
aF852
aF661
aF661
aF487
aF509
aF783
aF646
aF502
aF802
aF590
aF539
aF821
aF574
aF553
aF823
aF815
aF522
aF613
aF549
aF529
aF666
aF549
aF529
aF666
aF856
aF549
aF515
aF843
aF549
aF515
aF843
aF694
aF565
aF496
aF832
aF565
aF496
aF832
aF707
aF518
aF540
aF837
aF518
aF540
aF837
aF704
aF607
aF607
aF743
aF552
aF860
aF718
aF718
aF550
aF551
aF884
aF556
aF556
aF861
aF588
aF747
aF552
aF552
aF792
aF670
aF788
aF672
aF490
aF788
aF478
aF720
aF752
aF548
aF579
aF822
aF808
aF509
aF633
aF565
aF490
aF724
aF565
aF490
aF724
aF821
aF544
aF525
aF849
aF544
aF525
aF849
aF682
aF474
aF600
aF827
aF474
aF600
aF827
aF699
aF597
aF476
aF829
aF597
aF476
aF829
aF698
asg7
(lp67
S'1'
aS'0'
aS'0'
aS'1'
asg9
(lp68
F1261
aF1450
aF2179
aF1910
aF1361
aF1361
aF1866
aF2186
aF1917
aF1308
aF1308
aF2286
aF1831
aF1801
aF1276
aF1276
aF2095
aF2137
aF1713
aF1312
aF2146
aF1642
aF1234
aF2050
aF1815
aF1271
aF1719
aF2110
aF1332
aF2158
aF1610
aF1617
aF2170
aF1170
aF1617
aF2170
aF1170
aF1844
aF2199
aF1561
aF1207
aF2199
aF1561
aF1207
aF1833
aF1840
aF1740
aF1114
aF1840
aF1740
aF1114
aF2106
aF2148
aF1735
aF1134
aF2148
aF1735
aF1134
aF1782
aF1724
aF1724
aF1848
aF990
aF2099
aF2009
aF2009
aF1604
aF1187
aF2233
aF1922
aF1922
aF2144
aF1233
aF1934
aF1502
aF1502
aF1572
aF2322
aF1405
aF1244
aF2071
aF1785
aF1235
aF2052
aF1812
aF2184
aF1481
aF1435
aF1585
aF2165
aF1349
aF1838
aF2226
aF1289
aF1838
aF2226
aF1289
aF1447
aF1823
aF2045
aF0
aF1823
aF2045
aF0
aF1232
aF1910
aF2173
aF1240
aF1910
aF2173
aF1240
aF1477
aF1632
aF2216
aF1758
aF1632
aF2216
aF1758
aF1195
aF1489
aF1489
aF2237
aF1846
aF1810
aF1779
aF1779
aF0
aF1816
aF2098
aF1877
aF1877
aF0
aF1891
aF1959
aF1727
aF1727
aF2011
aF2080
aF1663
aF1770
aF2081
aF1249
aF1403
aF2181
aF1516
aF1469
aF2185
aF1446
aF1566
aF2171
aF1363
aF1493
aF2129
aF1216
aF1493
aF2129
aF1216
aF1962
aF1332
aF1607
aF2304
aF1332
aF1607
aF2304
aF1558
aF1277
aF2175
aF1923
aF1277
aF2175
aF1923
aF1425
aF1265
aF1796
aF2239
aF1265
aF1796
aF2239
aF1500
asg11
(lp69
S'DOWN'
p70
aS'TO'
p71
aS'THE'
p72
aS'WIRE'
p73
asg16
g17
sbag3
ag36
ag64
ag46
a(igoofy.machine_learning.prepare_data
GMM_structure
p74
(dp75
g5
(lp76
F564
aF650
aF736
aF844
aF456
aF541
aF900
aF617
aF663
aF529
aF544
aF878
aF640
aF694
aF494
aF671
aF678
aF671
aF678
aF445
aF806
aF687
aF588
aF687
aF588
aF838
aF486
aF857
aF530
aF857
aF530
aF663
aF550
aF567
aF681
aF567
aF681
aF847
aF506
aF773
aF517
aF525
aF845
aF590
aF726
aF501
aF537
aF869
aF617
aF767
aF513
aF574
aF852
aF544
aF661
aF487
aF509
aF783
aF811
aF874
aF577
aF874
aF577
aF555
aF595
aF863
aF543
aF863
aF543
aF649
aF546
aF560
aF573
aF560
aF573
aF874
aF593
aF569
aF659
aF569
aF659
aF515
aF857
aF607
aF743
aF552
aF860
aF489
aF718
aF550
aF551
aF884
aF546
aF556
aF861
aF588
aF747
aF498
aF552
aF792
aF670
aF788
aF448
aF870
aF568
aF870
aF568
aF543
aF619
aF567
aF645
aF567
aF645
aF525
aF862
aF545
aF664
aF545
aF664
aF534
aF857
aF533
aF764
aF533
aF764
aF509
aF794
asg7
(lp77
S'1'
aS'0'
aS'0'
aS'1'
aS'0'
asg9
(lp78
F1361
aF1866
aF2186
aF1917
aF1171
aF1308
aF2286
aF1831
aF1801
aF1275
aF1276
aF2095
aF2137
aF1713
aF1278
aF2005
aF1743
aF2005
aF1743
aF1958
aF1094
aF1931
aF1706
aF1931
aF1706
aF2055
aF1108
aF2171
aF1497
aF2171
aF1497
aF1905
aF1227
aF1879
aF1772
aF1879
aF1772
aF2055
aF1095
aF1724
aF1848
aF990
aF2099
aF1839
aF2009
aF1604
aF1187
aF2233
aF1467
aF1922
aF2144
aF1233
aF1934
aF1268
aF1502
aF1572
aF2322
aF1405
aF0
aF2248
aF1443
aF2248
aF1443
aF1800
aF1309
aF2166
aF1368
aF2166
aF1368
aF1944
aF1323
aF1809
aF1405
aF1809
aF1405
aF2248
aF1339
aF2045
aF1409
aF2045
aF1409
aF2075
aF1271
aF1489
aF2237
aF1846
aF1810
aF1118
aF1779
aF0
aF1816
aF2098
aF1107
aF1877
aF0
aF1891
aF1959
aF1072
aF1727
aF2011
aF2080
aF1663
aF1020
aF2236
aF1421
aF2236
aF1421
aF1827
aF1316
aF2120
aF1414
aF2120
aF1414
aF1995
aF1271
aF2067
aF1360
aF2067
aF1360
aF2059
aF1314
aF2049
aF1536
aF2049
aF1536
aF2034
aF1181
asg11
(lp79
S'DOWN'
p80
aS'TO'
p81
aS'THE'
p82
aS'WIRE'
p83
aS'WIRE'
p84
asg16
g17
sbaa(lp85
S'IY'
p86
aS'AE'
p87
aS'EH'
p88
aS'IH'
p89
aS'AH'
p90
aS'UW'
p91
aS'AO'
p92
aS'AY'
p93
aS'EY'
p94
aS'UH'
p95
aS'AW'
p96
aS'OW'
p97
aS'ER'
p98
aa.